; Function Attrs: mustprogress uwtable
define internal fastcc noundef float @_ZL26xtc_get_current_frame_timeP8_IO_FILEP3XDRiPb(ptr noundef %0, ptr noundef %1, i32 noundef %2, ptr noundef writeonly captures(none) initializes((0, 1)) %3) unnamed_addr #3 {
  %5 = alloca i32, align 4
  %6 = alloca float, align 4
  call void @llvm.lifetime.start.p0(i64 4, ptr nonnull %5) #17
  call void @llvm.lifetime.start.p0(i64 4, ptr nonnull %6) #17
  store i8 0, ptr %3, align 1, !tbaa !56
  %7 = tail call noundef i64 @_Z9gmx_ftellP8_IO_FILE(ptr noundef %0)
  %8 = icmp slt i64 %7, 0
  br i1 %8, label %.loopexit, label %.preheader

.preheader:                                       ; preds = %4, %17
  %9 = call fastcc noundef i32 @_ZL19xtc_at_header_startP8_IO_FILEP3XDRiPiPf(ptr noundef %0, ptr noundef %1, i32 noundef %2, ptr noundef %5, ptr noundef %6)
  switch i32 %9, label %17 [
    i32 1, label %10
    i32 -1, label %15
  ]

10:                                               ; preds = %.preheader
  store i8 1, ptr %3, align 1, !tbaa !56
  %11 = tail call noundef i32 @_Z9gmx_fseekP8_IO_FILEli(ptr noundef %0, i64 noundef %7, i32 noundef 0)
  %.not16 = icmp eq i32 %11, 0
  br i1 %.not16, label %13, label %12

12:                                               ; preds = %10
  store i8 0, ptr %3, align 1, !tbaa !56
  br label %.loopexit

13:                                               ; preds = %10
  %14 = load float, ptr %6, align 4, !tbaa !20
  br label %.loopexit

15:                                               ; preds = %.preheader
  %16 = tail call noundef i32 @_Z9gmx_fseekP8_IO_FILEli(ptr noundef %0, i64 noundef %7, i32 noundef 0)
  br label %.loopexit

17:                                               ; preds = %.preheader
  %18 = tail call noundef i32 @_Z9gmx_fseekP8_IO_FILEli(ptr noundef %0, i64 noundef -8, i32 noundef 1)
  %.not = icmp eq i32 %18, 0
  br i1 %.not, label %.preheader, label %.loopexit, !llvm.loop !61

.loopexit:                                        ; preds = %17, %4, %15, %13, %12
  %.0 = phi float [ -1.000000e+00, %12 ], [ %14, %13 ], [ -1.000000e+00, %15 ], [ -1.000000e+00, %4 ], [ -1.000000e+00, %17 ]
  call void @llvm.lifetime.end.p0(i64 4, ptr nonnull %6) #17
  call void @llvm.lifetime.end.p0(i64 4, ptr nonnull %5) #17
  ret float %.0
}